Certificate:
    Data:
        Version: 3 (0x2)
        Serial Number:
            81:c3:54:bd:60:b9:2c:bb:5e:81:55:a3:42:38:fa:d4
        Signature Algorithm: SM2-with-SM3
        Issuer: C = CN, O = \E6\B2\83\E9\80\9A\E7\94\B5\E5\AD\90\E8\AE\A4\E8\AF\81\E6\9C\8D\E5\8A\A1\E6\9C\89\E9\99\90\E5\85\AC\E5\8F\B8, CN = \E5\9B\BD\E5\AF\86SM2\E6\A0\B9\E8\AF\81\E4\B9\A6
        Validity
            Not Before: Apr  4 06:16:16 2019 GMT
            Not After : Apr  4 06:16:16 2044 GMT
        Subject: C = CN, O = \E6\B2\83\E9\80\9A\E7\94\B5\E5\AD\90\E8\AE\A4\E8\AF\81\E6\9C\8D\E5\8A\A1\E6\9C\89\E9\99\90\E5\85\AC\E5\8F\B8, CN = \E5\9B\BD\E5\AF\86SM2\E6\A0\B9\E8\AF\81\E4\B9\A6
        Subject Public Key Info:
            Public Key Algorithm: id-ecPublicKey
                Public-Key: (256 bit)
                pub:
                    04:1b:68:b0:41:69:9d:b0:8e:fe:33:30:16:ac:b7:
                    6b:1f:89:c4:cd:be:2a:d9:48:f2:fd:06:c6:ae:5a:
                    ae:7b:be:22:79:81:44:23:9c:55:d4:9f:3f:46:a3:
                    c7:d6:7f:43:f0:10:73:cd:e6:2e:bf:d9:87:26:96:
                    20:07:a8:d7:a2
                ASN1 OID: SM2
        X509v3 extensions:
            X509v3 Subject Key Identifier: 
                31:B8:15:87:4C:CC:37:97:3A:ED:EF:4D:91:4A:2B:AD:0B:35:76:20
            X509v3 Basic Constraints: critical
                CA:TRUE
            X509v3 Key Usage: critical
                Certificate Sign, CRL Sign
    Signature Algorithm: SM2-with-SM3
         30:46:02:21:00:ac:a1:b6:30:e0:fd:57:6d:2b:8b:c6:fa:11:
         dd:14:e1:8e:ff:8e:2d:41:dd:a0:67:71:4e:d6:5d:bf:a8:da:
         c8:02:21:00:b0:41:f2:c7:0d:9a:d3:60:c8:45:2d:d7:3e:78:
         81:ab:10:6f:c3:a2:09:91:0f:21:d4:59:04:34:76:18:8e:c0
-----BEGIN CERTIFICATE-----
MIIB9DCCAZmgAwIBAgIRAIHDVL1guSy7XoFVo0I4+tQwCgYIKoEcz1UBg3UwWTEL
MAkGA1UEBhMCQ04xLTArBgNVBAoMJOayg+mAmueUteWtkOiupOivgeacjeWKoeac
iemZkOWFrOWPuDEbMBkGA1UEAwwS5Zu95a+GU00y5qC56K+B5LmmMB4XDTE5MDQw
NDA2MTYxNloXDTQ0MDQwNDA2MTYxNlowWTELMAkGA1UEBhMCQ04xLTArBgNVBAoM
JOayg+mAmueUteWtkOiupOivgeacjeWKoeaciemZkOWFrOWPuDEbMBkGA1UEAwwS
5Zu95a+GU00y5qC56K+B5LmmMFkwEwYHKoZIzj0CAQYIKoEcz1UBgi0DQgAEG2iw
QWmdsI7+MzAWrLdrH4nEzb4q2Ujy/QbGrlque74ieYFEI5xV1J8/RqPH1n9D8BBz
zeYuv9mHJpYgB6jXoqNCMEAwHQYDVR0OBBYEFDG4FYdMzDeXOu3vTZFKK60LNXYg
MA8GA1UdEwEB/wQFMAMBAf8wDgYDVR0PAQH/BAQDAgEGMAoGCCqBHM9VAYN1A0kA
MEYCIQCsobYw4P1XbSuLxvoR3RThjv+OLUHdoGdxTtZdv6jayAIhALBB8scNmtNg
yEUt1z54gasQb8OiCZEPIdRZBDR2GI7A
-----END CERTIFICATE-----
